; Function Attrs: mustprogress uwtable
define hidden noundef i64 @_ZNK3ade20MemoryDescriptorView11elementSizeEv(ptr noundef nonnull readonly align 8 captures(none) dereferenceable(96) %0) local_unnamed_addr #1 align 2 {
  %2 = getelementptr inbounds nuw i8, ptr %0, i64 8
  %3 = load ptr, ptr %2, align 8, !tbaa !20
  %.not.i = icmp eq ptr %3, null
  br i1 %.not.i, label %_ZNK3ade20MemoryDescriptorView13getDescriptorEv.exit, label %tailrecurse.i.i

tailrecurse.i.i:                                  ; preds = %1, %tailrecurse.i.i
  %.tr.i.i = phi ptr [ %5, %tailrecurse.i.i ], [ %3, %1 ]
  %4 = getelementptr inbounds nuw i8, ptr %.tr.i.i, i64 8
  %5 = load ptr, ptr %4, align 8, !tbaa !20
  %.not.i.i = icmp eq ptr %5, null
  br i1 %.not.i.i, label %_ZNK3ade20MemoryDescriptorView13getDescriptorEv.exit, label %tailrecurse.i.i

_ZNK3ade20MemoryDescriptorView13getDescriptorEv.exit: ; preds = %tailrecurse.i.i, %1
  %.0.in.i = phi ptr [ %0, %1 ], [ %.tr.i.i, %tailrecurse.i.i ]
  %.0.i = load ptr, ptr %.0.in.i, align 8, !tbaa !19
  %6 = tail call noundef i64 @_ZNK3ade16MemoryDescriptor11elementSizeEv(ptr noundef nonnull align 8 dereferenceable(264) %.0.i)
  ret i64 %6
}